target datalayout = "e-m:e-p270:32:32-p271:32:32-p272:64:64-i64:64-i128:128-f80:128-n8:16:32:64-S128"
target triple = "x86_64-pc-linux-gnu"

%struct.Vec_Int_t_ = type { i32, i32, ptr }
%struct.Vec_Wec_t_ = type { i32, i32, ptr }
%struct.Vec_Ptr_t_ = type { i32, i32, ptr }

@.str.19 = private unnamed_addr constant [4 x i8] c" %d\00", align 1
@.str.20 = private unnamed_addr constant [4 x i8] c" }\0A\00", align 1
@.str.42 = private unnamed_addr constant [27 x i8] c"Nodes with matching cuts:\0A\00", align 1
@.str.43 = private unnamed_addr constant [10 x i8] c"Type %d:\0A\00", align 1
@.str.44 = private unnamed_addr constant [28 x i8] c"Type %d present in %d cuts\0A\00", align 1
@.str.52 = private unnamed_addr constant [9 x i8] c" %4d : {\00", align 1

; Function Attrs: inlinehint nounwind uwtable
define internal i32 @Vec_IntEntry(ptr noundef %0, i32 noundef %1) #2 {
  %3 = alloca ptr, align 8
  %4 = alloca i32, align 4
  store ptr %0, ptr %3, align 8, !tbaa !55
  store i32 %1, ptr %4, align 4, !tbaa !8
  %5 = load ptr, ptr %3, align 8, !tbaa !55
  %6 = getelementptr inbounds nuw %struct.Vec_Int_t_, ptr %5, i32 0, i32 2
  %7 = load ptr, ptr %6, align 8, !tbaa !80
  %8 = load i32, ptr %4, align 4, !tbaa !8
  %9 = sext i32 %8 to i64
  %10 = getelementptr inbounds i32, ptr %7, i64 %9
  %11 = load i32, ptr %10, align 4, !tbaa !8
  ret i32 %11
}

; Function Attrs: inlinehint nounwind uwtable
define internal i32 @Vec_IntSize(ptr noundef %0) #2 {
  %2 = alloca ptr, align 8
  store ptr %0, ptr %2, align 8, !tbaa !55
  %3 = load ptr, ptr %2, align 8, !tbaa !55
  %4 = getelementptr inbounds nuw %struct.Vec_Int_t_, ptr %3, i32 0, i32 1
  %5 = load i32, ptr %4, align 4, !tbaa !78
  ret i32 %5
}

; Function Attrs: inlinehint nounwind uwtable
define internal ptr @Vec_WecEntry(ptr noundef %0, i32 noundef %1) #2 {
  %3 = alloca ptr, align 8
  %4 = alloca i32, align 4
  store ptr %0, ptr %3, align 8, !tbaa !82
  store i32 %1, ptr %4, align 4, !tbaa !8
  %5 = load ptr, ptr %3, align 8, !tbaa !82
  %6 = getelementptr inbounds nuw %struct.Vec_Wec_t_, ptr %5, i32 0, i32 2
  %7 = load ptr, ptr %6, align 8, !tbaa !99
  %8 = load i32, ptr %4, align 4, !tbaa !8
  %9 = sext i32 %8 to i64
  %10 = getelementptr inbounds %struct.Vec_Int_t_, ptr %7, i64 %9
  ret ptr %10
}

; Function Attrs: inlinehint nounwind uwtable
define internal i32 @Vec_WecSize(ptr noundef %0) #2 {
  %2 = alloca ptr, align 8
  store ptr %0, ptr %2, align 8, !tbaa !82
  %3 = load ptr, ptr %2, align 8, !tbaa !82
  %4 = getelementptr inbounds nuw %struct.Vec_Wec_t_, ptr %3, i32 0, i32 1
  %5 = load i32, ptr %4, align 4, !tbaa !83
  ret i32 %5
}

; Function Attrs: inlinehint nounwind uwtable
define internal void @Vec_WecPrint(ptr noundef %0, i32 noundef %1) #2 {
  %3 = alloca ptr, align 8
  %4 = alloca i32, align 4
  %5 = alloca ptr, align 8
  %6 = alloca i32, align 4
  %7 = alloca i32, align 4
  %8 = alloca i32, align 4
  store ptr %0, ptr %3, align 8, !tbaa !82
  store i32 %1, ptr %4, align 4, !tbaa !8
  call void @llvm.lifetime.start.p0(i64 8, ptr %5) #12
  call void @llvm.lifetime.start.p0(i64 4, ptr %6) #12
  call void @llvm.lifetime.start.p0(i64 4, ptr %7) #12
  call void @llvm.lifetime.start.p0(i64 4, ptr %8) #12
  store i32 0, ptr %6, align 4, !tbaa !8
  br label %9

9:                                                ; preds = %50, %2
  %10 = load i32, ptr %6, align 4, !tbaa !8
  %11 = load ptr, ptr %3, align 8, !tbaa !82
  %12 = call i32 @Vec_WecSize(ptr noundef %11)
  %13 = icmp slt i32 %10, %12
  br i1 %13, label %14, label %18

14:                                               ; preds = %9
  %15 = load ptr, ptr %3, align 8, !tbaa !82
  %16 = load i32, ptr %6, align 4, !tbaa !8
  %17 = call ptr @Vec_WecEntry(ptr noundef %15, i32 noundef %16)
  store ptr %17, ptr %5, align 8, !tbaa !55
  br label %18

18:                                               ; preds = %14, %9
  %19 = phi i1 [ false, %9 ], [ true, %14 ]
  br i1 %19, label %20, label %53

20:                                               ; preds = %18
  %21 = load i32, ptr %4, align 4, !tbaa !8
  %22 = icmp ne i32 %21, 0
  br i1 %22, label %23, label %28

23:                                               ; preds = %20
  %24 = load ptr, ptr %5, align 8, !tbaa !55
  %25 = call i32 @Vec_IntSize(ptr noundef %24)
  %26 = icmp eq i32 %25, 1
  br i1 %26, label %27, label %28

27:                                               ; preds = %23
  br label %50

28:                                               ; preds = %23, %20
  %29 = load i32, ptr %6, align 4, !tbaa !8
  %30 = call i32 (ptr, ...) @printf(ptr noundef @.str.52, i32 noundef %29)
  store i32 0, ptr %7, align 4, !tbaa !8
  br label %31

31:                                               ; preds = %45, %28
  %32 = load i32, ptr %7, align 4, !tbaa !8
  %33 = load ptr, ptr %5, align 8, !tbaa !55
  %34 = call i32 @Vec_IntSize(ptr noundef %33)
  %35 = icmp slt i32 %32, %34
  br i1 %35, label %36, label %40

36:                                               ; preds = %31
  %37 = load ptr, ptr %5, align 8, !tbaa !55
  %38 = load i32, ptr %7, align 4, !tbaa !8
  %39 = call i32 @Vec_IntEntry(ptr noundef %37, i32 noundef %38)
  store i32 %39, ptr %8, align 4, !tbaa !8
  br label %40

40:                                               ; preds = %36, %31
  %41 = phi i1 [ false, %31 ], [ true, %36 ]
  br i1 %41, label %42, label %48

42:                                               ; preds = %40
  %43 = load i32, ptr %8, align 4, !tbaa !8
  %44 = call i32 (ptr, ...) @printf(ptr noundef @.str.19, i32 noundef %43)
  br label %45

45:                                               ; preds = %42
  %46 = load i32, ptr %7, align 4, !tbaa !8
  %47 = add nsw i32 %46, 1
  store i32 %47, ptr %7, align 4, !tbaa !8
  br label %31, !llvm.loop !166

48:                                               ; preds = %40
  %49 = call i32 (ptr, ...) @printf(ptr noundef @.str.20)
  br label %50

50:                                               ; preds = %48, %27
  %51 = load i32, ptr %6, align 4, !tbaa !8
  %52 = add nsw i32 %51, 1
  store i32 %52, ptr %6, align 4, !tbaa !8
  br label %9, !llvm.loop !167

53:                                               ; preds = %18
  call void @llvm.lifetime.end.p0(i64 4, ptr %8) #12
  call void @llvm.lifetime.end.p0(i64 4, ptr %7) #12
  call void @llvm.lifetime.end.p0(i64 4, ptr %6) #12
  call void @llvm.lifetime.end.p0(i64 8, ptr %5) #12
  ret void
}

; Function Attrs: inlinehint nounwind uwtable
define internal ptr @Vec_PtrEntry(ptr noundef %0, i32 noundef %1) #2 {
  %3 = alloca ptr, align 8
  %4 = alloca i32, align 4
  store ptr %0, ptr %3, align 8, !tbaa !181
  store i32 %1, ptr %4, align 4, !tbaa !8
  %5 = load ptr, ptr %3, align 8, !tbaa !181
  %6 = getelementptr inbounds nuw %struct.Vec_Ptr_t_, ptr %5, i32 0, i32 2
  %7 = load ptr, ptr %6, align 8, !tbaa !191
  %8 = load i32, ptr %4, align 4, !tbaa !8
  %9 = sext i32 %8 to i64
  %10 = getelementptr inbounds ptr, ptr %7, i64 %9
  %11 = load ptr, ptr %10, align 8, !tbaa !192
  ret ptr %11
}

; Function Attrs: inlinehint nounwind uwtable
define internal i32 @Vec_PtrSize(ptr noundef %0) #2 {
  %2 = alloca ptr, align 8
  store ptr %0, ptr %2, align 8, !tbaa !181
  %3 = load ptr, ptr %2, align 8, !tbaa !181
  %4 = getelementptr inbounds nuw %struct.Vec_Ptr_t_, ptr %3, i32 0, i32 1
  %5 = load i32, ptr %4, align 4, !tbaa !188
  ret i32 %5
}

; Function Attrs: nounwind uwtable
define void @Gia_ManMatchConesOutputPrint(ptr noundef %0, i32 noundef %1) #0 {
  %3 = alloca ptr, align 8
  %4 = alloca i32, align 4
  %5 = alloca ptr, align 8
  %6 = alloca i32, align 4
  store ptr %0, ptr %3, align 8, !tbaa !181
  store i32 %1, ptr %4, align 4, !tbaa !8
  call void @llvm.lifetime.start.p0(i64 8, ptr %5) #12
  call void @llvm.lifetime.start.p0(i64 4, ptr %6) #12
  %7 = call i32 (ptr, ...) @printf(ptr noundef @.str.42)
  store i32 0, ptr %6, align 4, !tbaa !8
  br label %8

8:                                                ; preds = %32, %2
  %9 = load i32, ptr %6, align 4, !tbaa !8
  %10 = load ptr, ptr %3, align 8, !tbaa !181
  %11 = call i32 @Vec_PtrSize(ptr noundef %10)
  %12 = icmp slt i32 %9, %11
  br i1 %12, label %13, label %17

13:                                               ; preds = %8
  %14 = load ptr, ptr %3, align 8, !tbaa !181
  %15 = load i32, ptr %6, align 4, !tbaa !8
  %16 = call ptr @Vec_PtrEntry(ptr noundef %14, i32 noundef %15)
  store ptr %16, ptr %5, align 8, !tbaa !82
  br label %17

17:                                               ; preds = %13, %8
  %18 = phi i1 [ false, %8 ], [ true, %13 ]
  br i1 %18, label %19, label %35

19:                                               ; preds = %17
  %20 = load i32, ptr %4, align 4, !tbaa !8
  %21 = icmp ne i32 %20, 0
  br i1 %21, label %22, label %26

22:                                               ; preds = %19
  %23 = load i32, ptr %6, align 4, !tbaa !8
  %24 = call i32 (ptr, ...) @printf(ptr noundef @.str.43, i32 noundef %23)
  %25 = load ptr, ptr %5, align 8, !tbaa !82
  call void @Vec_WecPrint(ptr noundef %25, i32 noundef 0)
  br label %31

26:                                               ; preds = %19
  %27 = load i32, ptr %6, align 4, !tbaa !8
  %28 = load ptr, ptr %5, align 8, !tbaa !82
  %29 = call i32 @Vec_WecSize(ptr noundef %28)
  %30 = call i32 (ptr, ...) @printf(ptr noundef @.str.44, i32 noundef %27, i32 noundef %29)
  br label %31

31:                                               ; preds = %26, %22
  br label %32

32:                                               ; preds = %31
  %33 = load i32, ptr %6, align 4, !tbaa !8
  %34 = add nsw i32 %33, 1
  store i32 %34, ptr %6, align 4, !tbaa !8
  br label %8, !llvm.loop !213

35:                                               ; preds = %17
  call void @llvm.lifetime.end.p0(i64 4, ptr %6) #12
  call void @llvm.lifetime.end.p0(i64 8, ptr %5) #12
  ret void
}