; Function Attrs: nofree nounwind uwtable
define void @Gia_ManMatchConesOutputPrint(ptr noundef readonly captures(none) %0, i32 noundef %1) local_unnamed_addr #8 {
  %puts = tail call i32 @puts(ptr nonnull dereferenceable(1) @str.3)
  %3 = getelementptr i8, ptr %0, i64 4
  %.val911 = load i32, ptr %3, align 4, !tbaa !193
  %4 = icmp sgt i32 %.val911, 0
  br i1 %4, label %.lr.ph, label %.critedge

.lr.ph:                                           ; preds = %2
  %5 = getelementptr i8, ptr %0, i64 8
  %.not = icmp eq i32 %1, 0
  br i1 %.not, label %Vec_WecPrint.exit.us, label %.lr.ph.split

Vec_WecPrint.exit.us:                             ; preds = %.lr.ph, %Vec_WecPrint.exit.us
  %indvars.iv15 = phi i64 [ %indvars.iv.next16, %Vec_WecPrint.exit.us ], [ 0, %.lr.ph ]
  %.val10.us = load ptr, ptr %5, align 8, !tbaa !196
  %6 = getelementptr inbounds nuw ptr, ptr %.val10.us, i64 %indvars.iv15
  %7 = load ptr, ptr %6, align 8, !tbaa !197
  %8 = getelementptr i8, ptr %7, i64 4
  %.val.us = load i32, ptr %8, align 4, !tbaa !100
  %9 = trunc nuw nsw i64 %indvars.iv15 to i32
  %10 = tail call i32 (ptr, ...) @printf(ptr noundef nonnull dereferenceable(1) @.str.44, i32 noundef %9, i32 noundef %.val.us)
  %indvars.iv.next16 = add nuw nsw i64 %indvars.iv15, 1
  %.val9.us = load i32, ptr %3, align 4, !tbaa !193
  %11 = sext i32 %.val9.us to i64
  %12 = icmp slt i64 %indvars.iv.next16, %11
  br i1 %12, label %Vec_WecPrint.exit.us, label %.critedge, !llvm.loop !226

.lr.ph.split:                                     ; preds = %.lr.ph, %Vec_WecPrint.exit
  %indvars.iv = phi i64 [ %indvars.iv.next, %Vec_WecPrint.exit ], [ 0, %.lr.ph ]
  %.val10 = load ptr, ptr %5, align 8, !tbaa !196
  %13 = getelementptr inbounds nuw ptr, ptr %.val10, i64 %indvars.iv
  %14 = load ptr, ptr %13, align 8, !tbaa !197
  %15 = trunc nuw nsw i64 %indvars.iv to i32
  %16 = tail call i32 (ptr, ...) @printf(ptr noundef nonnull dereferenceable(1) @.str.43, i32 noundef %15)
  %17 = getelementptr i8, ptr %14, i64 4
  %.val1821.i = load i32, ptr %17, align 4, !tbaa !100
  %18 = icmp sgt i32 %.val1821.i, 0
  br i1 %18, label %.lr.ph23.i, label %Vec_WecPrint.exit

.lr.ph23.i:                                       ; preds = %.lr.ph.split
  %19 = getelementptr i8, ptr %14, i64 8
  br label %20

20:                                               ; preds = %.critedge2.i, %.lr.ph23.i
  %indvars.iv25.i = phi i64 [ 0, %.lr.ph23.i ], [ %indvars.iv.next26.i, %.critedge2.i ]
  %.val.i = load ptr, ptr %19, align 8, !tbaa !34
  %21 = getelementptr inbounds nuw %struct.Vec_Int_t_, ptr %.val.i, i64 %indvars.iv25.i
  %22 = trunc nuw nsw i64 %indvars.iv25.i to i32
  %23 = tail call i32 (ptr, ...) @printf(ptr noundef nonnull dereferenceable(1) @.str.52, i32 noundef %22)
  %24 = getelementptr i8, ptr %21, i64 4
  %.val1719.i = load i32, ptr %24, align 4, !tbaa !89
  %25 = icmp sgt i32 %.val1719.i, 0
  br i1 %25, label %.lr.ph.i, label %.critedge2.i

.lr.ph.i:                                         ; preds = %20
  %26 = getelementptr i8, ptr %21, i64 8
  br label %27

27:                                               ; preds = %27, %.lr.ph.i
  %indvars.iv.i = phi i64 [ 0, %.lr.ph.i ], [ %indvars.iv.next.i, %27 ]
  %.val16.i = load ptr, ptr %26, align 8, !tbaa !36
  %28 = getelementptr inbounds nuw i32, ptr %.val16.i, i64 %indvars.iv.i
  %29 = load i32, ptr %28, align 4, !tbaa !37
  %30 = tail call i32 (ptr, ...) @printf(ptr noundef nonnull dereferenceable(1) @.str.19, i32 noundef %29)
  %indvars.iv.next.i = add nuw nsw i64 %indvars.iv.i, 1
  %.val17.i = load i32, ptr %24, align 4, !tbaa !89
  %31 = sext i32 %.val17.i to i64
  %32 = icmp slt i64 %indvars.iv.next.i, %31
  br i1 %32, label %27, label %.critedge2.i, !llvm.loop !182

.critedge2.i:                                     ; preds = %27, %20
  %puts.i = tail call i32 @puts(ptr nonnull dereferenceable(1) @str.2)
  %indvars.iv.next26.i = add nuw nsw i64 %indvars.iv25.i, 1
  %.val18.i = load i32, ptr %17, align 4, !tbaa !100
  %33 = sext i32 %.val18.i to i64
  %34 = icmp slt i64 %indvars.iv.next26.i, %33
  br i1 %34, label %20, label %Vec_WecPrint.exit, !llvm.loop !183

Vec_WecPrint.exit:                                ; preds = %.critedge2.i, %.lr.ph.split
  %indvars.iv.next = add nuw nsw i64 %indvars.iv, 1
  %.val9 = load i32, ptr %3, align 4, !tbaa !193
  %35 = sext i32 %.val9 to i64
  %36 = icmp slt i64 %indvars.iv.next, %35
  br i1 %36, label %.lr.ph.split, label %.critedge, !llvm.loop !226

.critedge:                                        ; preds = %Vec_WecPrint.exit, %Vec_WecPrint.exit.us, %2
  ret void
}